target datalayout = "e-m:e-p270:32:32-p271:32:32-p272:64:64-i64:64-i128:128-f80:128-n8:16:32:64-S128"
target triple = "x86_64-pc-linux-gnu"

%struct.PrintfTarget = type { ptr, ptr, ptr, ptr, i32, i8 }
%struct.__va_list_tag = type { i32, i32, ptr, ptr }

; Function Attrs: nounwind uwtable
define i32 @pg_vsnprintf(ptr noundef %0, i64 noundef %1, ptr noundef %2, ptr noundef %3) #0 {
  %5 = alloca ptr, align 8
  %6 = alloca i64, align 8
  %7 = alloca ptr, align 8
  %8 = alloca ptr, align 8
  %9 = alloca %struct.PrintfTarget, align 8
  %10 = alloca [1 x i8], align 1
  store ptr %0, ptr %5, align 8
  store i64 %1, ptr %6, align 8
  store ptr %2, ptr %7, align 8
  store ptr %3, ptr %8, align 8
  call void @llvm.lifetime.start.p0(i64 40, ptr %9) #10
  call void @llvm.lifetime.start.p0(i64 1, ptr %10) #10
  %11 = load i64, ptr %6, align 8
  %12 = icmp eq i64 %11, 0
  br i1 %12, label %13, label %15

13:                                               ; preds = %4
  %14 = getelementptr inbounds [1 x i8], ptr %10, i64 0, i64 0
  store ptr %14, ptr %5, align 8
  store i64 1, ptr %6, align 8
  br label %15

15:                                               ; preds = %13, %4
  %16 = load ptr, ptr %5, align 8
  %17 = getelementptr inbounds nuw %struct.PrintfTarget, ptr %9, i32 0, i32 0
  store ptr %16, ptr %17, align 8
  %18 = getelementptr inbounds nuw %struct.PrintfTarget, ptr %9, i32 0, i32 1
  store ptr %16, ptr %18, align 8
  %19 = load ptr, ptr %5, align 8
  %20 = load i64, ptr %6, align 8
  %21 = getelementptr inbounds nuw i8, ptr %19, i64 %20
  %22 = getelementptr inbounds i8, ptr %21, i64 -1
  %23 = getelementptr inbounds nuw %struct.PrintfTarget, ptr %9, i32 0, i32 2
  store ptr %22, ptr %23, align 8
  %24 = getelementptr inbounds nuw %struct.PrintfTarget, ptr %9, i32 0, i32 3
  store ptr null, ptr %24, align 8
  %25 = getelementptr inbounds nuw %struct.PrintfTarget, ptr %9, i32 0, i32 4
  store i32 0, ptr %25, align 8
  %26 = getelementptr inbounds nuw %struct.PrintfTarget, ptr %9, i32 0, i32 5
  store i8 0, ptr %26, align 4
  %27 = load ptr, ptr %7, align 8
  %28 = load ptr, ptr %8, align 8
  call void @dopr(ptr noundef %9, ptr noundef %27, ptr noundef %28)
  %29 = getelementptr inbounds nuw %struct.PrintfTarget, ptr %9, i32 0, i32 0
  %30 = load ptr, ptr %29, align 8
  store i8 0, ptr %30, align 1
  %31 = getelementptr inbounds nuw %struct.PrintfTarget, ptr %9, i32 0, i32 5
  %32 = load i8, ptr %31, align 4, !range !3, !noundef !4
  %33 = trunc i8 %32 to i1
  br i1 %33, label %34, label %35

34:                                               ; preds = %15
  br label %47

35:                                               ; preds = %15
  %36 = getelementptr inbounds nuw %struct.PrintfTarget, ptr %9, i32 0, i32 0
  %37 = load ptr, ptr %36, align 8
  %38 = getelementptr inbounds nuw %struct.PrintfTarget, ptr %9, i32 0, i32 1
  %39 = load ptr, ptr %38, align 8
  %40 = ptrtoint ptr %37 to i64
  %41 = ptrtoint ptr %39 to i64
  %42 = sub i64 %40, %41
  %43 = getelementptr inbounds nuw %struct.PrintfTarget, ptr %9, i32 0, i32 4
  %44 = load i32, ptr %43, align 8
  %45 = sext i32 %44 to i64
  %46 = add i64 %42, %45
  br label %47

47:                                               ; preds = %35, %34
  %48 = phi i64 [ -1, %34 ], [ %46, %35 ]
  %49 = trunc i64 %48 to i32
  call void @llvm.lifetime.end.p0(i64 1, ptr %10) #10
  call void @llvm.lifetime.end.p0(i64 40, ptr %9) #10
  ret i32 %49
}

; Function Attrs: nounwind uwtable
define i32 @pg_snprintf(ptr noundef %0, i64 noundef %1, ptr noundef %2, ...) #0 {
  %4 = alloca ptr, align 8
  %5 = alloca i64, align 8
  %6 = alloca ptr, align 8
  %7 = alloca i32, align 4
  %8 = alloca [1 x %struct.__va_list_tag], align 16
  store ptr %0, ptr %4, align 8
  store i64 %1, ptr %5, align 8
  store ptr %2, ptr %6, align 8
  call void @llvm.lifetime.start.p0(i64 4, ptr %7) #10
  call void @llvm.lifetime.start.p0(i64 24, ptr %8) #10
  %9 = getelementptr inbounds [1 x %struct.__va_list_tag], ptr %8, i64 0, i64 0
  call void @llvm.va_start.p0(ptr %9)
  %10 = load ptr, ptr %4, align 8
  %11 = load i64, ptr %5, align 8
  %12 = load ptr, ptr %6, align 8
  %13 = getelementptr inbounds [1 x %struct.__va_list_tag], ptr %8, i64 0, i64 0
  %14 = call i32 @pg_vsnprintf(ptr noundef %10, i64 noundef %11, ptr noundef %12, ptr noundef %13)
  store i32 %14, ptr %7, align 4
  %15 = getelementptr inbounds [1 x %struct.__va_list_tag], ptr %8, i64 0, i64 0
  call void @llvm.va_end.p0(ptr %15)
  %16 = load i32, ptr %7, align 4
  call void @llvm.lifetime.end.p0(i64 24, ptr %8) #10
  call void @llvm.lifetime.end.p0(i64 4, ptr %7) #10
  ret i32 %16
}