; Function Attrs: nounwind uwtable
define i32 @pg_snprintf(ptr noundef %0, i64 noundef %1, ptr noundef %2, ...) local_unnamed_addr #0 {
  %4 = alloca %struct.PrintfTarget, align 8
  %5 = alloca [1 x i8], align 1
  %6 = alloca [1 x %struct.__va_list_tag], align 16
  call void @llvm.lifetime.start.p0(i64 24, ptr nonnull %6) #14
  call void @llvm.va_start.p0(ptr nonnull %6)
  call void @llvm.lifetime.start.p0(i64 40, ptr nonnull %4) #14
  call void @llvm.lifetime.start.p0(i64 1, ptr nonnull %5) #14
  %7 = icmp eq i64 %1, 0
  %spec.select.i = call i64 @llvm.umax.i64(i64 %1, i64 1)
  %spec.select7.i = select i1 %7, ptr %5, ptr %0
  store ptr %spec.select7.i, ptr %4, align 8
  %8 = getelementptr inbounds nuw i8, ptr %4, i64 8
  store ptr %spec.select7.i, ptr %8, align 8
  %9 = getelementptr inbounds nuw i8, ptr %spec.select7.i, i64 %spec.select.i
  %10 = getelementptr inbounds i8, ptr %9, i64 -1
  %11 = getelementptr inbounds nuw i8, ptr %4, i64 16
  store ptr %10, ptr %11, align 8
  %12 = getelementptr inbounds nuw i8, ptr %4, i64 24
  store ptr null, ptr %12, align 8
  %13 = getelementptr inbounds nuw i8, ptr %4, i64 32
  store i32 0, ptr %13, align 8
  %14 = getelementptr inbounds nuw i8, ptr %4, i64 36
  store i8 0, ptr %14, align 4
  call fastcc void @dopr(ptr noundef %4, ptr noundef %2, ptr noundef nonnull %6)
  %15 = load ptr, ptr %4, align 8
  store i8 0, ptr %15, align 1
  %16 = load i8, ptr %14, align 4, !range !3, !noundef !4
  %17 = trunc nuw i8 %16 to i1
  %18 = load ptr, ptr %8, align 8
  %19 = ptrtoint ptr %15 to i64
  %20 = ptrtoint ptr %18 to i64
  %21 = sub i64 %19, %20
  %22 = load i32, ptr %13, align 8
  %23 = trunc i64 %21 to i32
  %24 = add i32 %22, %23
  %25 = select i1 %17, i32 -1, i32 %24
  call void @llvm.lifetime.end.p0(i64 1, ptr nonnull %5) #14
  call void @llvm.lifetime.end.p0(i64 40, ptr nonnull %4) #14
  call void @llvm.va_end.p0(ptr nonnull %6)
  call void @llvm.lifetime.end.p0(i64 24, ptr nonnull %6) #14
  ret i32 %25
}